target datalayout = "e-m:e-p270:32:32-p271:32:32-p272:64:64-i64:64-i128:128-f80:128-n8:16:32:64-S128"
target triple = "x86_64-pc-linux-gnu"

%struct.slurmdb_assoc_rec = type { ptr, ptr, ptr, ptr, ptr, ptr, ptr, i32, i32, i32, i32, i32, ptr, ptr, ptr, ptr, ptr, ptr, i32, i32, i16, ptr, ptr, i32, i32, i32, ptr, ptr, ptr, ptr, ptr, ptr, ptr, ptr, i32, i32, ptr, i32, ptr, i32, ptr, i32, i32, ptr, ptr, ptr }

; Function Attrs: nounwind uwtable
define internal i32 @_sort_assoc_by_lineage_asc(ptr noundef %0, ptr noundef %1) #0 {
  %3 = alloca i32, align 4
  %4 = alloca ptr, align 8
  %5 = alloca ptr, align 8
  %6 = alloca ptr, align 8
  %7 = alloca ptr, align 8
  %8 = alloca i32, align 4
  %9 = alloca i32, align 4
  store ptr %0, ptr %4, align 8
  store ptr %1, ptr %5, align 8
  call void @llvm.lifetime.start.p0(i64 8, ptr %6) #10
  %10 = load ptr, ptr %4, align 8
  %11 = load ptr, ptr %10, align 8
  store ptr %11, ptr %6, align 8
  call void @llvm.lifetime.start.p0(i64 8, ptr %7) #10
  %12 = load ptr, ptr %5, align 8
  %13 = load ptr, ptr %12, align 8
  store ptr %13, ptr %7, align 8
  call void @llvm.lifetime.start.p0(i64 4, ptr %8) #10
  %14 = load ptr, ptr %6, align 8
  %15 = getelementptr inbounds nuw %struct.slurmdb_assoc_rec, ptr %14, i32 0, i32 5
  %16 = load ptr, ptr %7, align 8
  %17 = getelementptr inbounds nuw %struct.slurmdb_assoc_rec, ptr %16, i32 0, i32 5
  %18 = call i32 @slurm_sort_char_list_asc(ptr noundef %15, ptr noundef %17)
  store i32 %18, ptr %8, align 4
  %19 = load i32, ptr %8, align 4
  %20 = icmp ne i32 %19, 0
  br i1 %20, label %21, label %23

21:                                               ; preds = %2
  %22 = load i32, ptr %8, align 4
  store i32 %22, ptr %3, align 4
  store i32 1, ptr %9, align 4
  br label %29

23:                                               ; preds = %2
  %24 = load ptr, ptr %6, align 8
  %25 = getelementptr inbounds nuw %struct.slurmdb_assoc_rec, ptr %24, i32 0, i32 22
  %26 = load ptr, ptr %7, align 8
  %27 = getelementptr inbounds nuw %struct.slurmdb_assoc_rec, ptr %26, i32 0, i32 22
  %28 = call i32 @slurm_sort_char_list_asc(ptr noundef %25, ptr noundef %27)
  store i32 %28, ptr %3, align 4
  store i32 1, ptr %9, align 4
  br label %29

29:                                               ; preds = %23, %21
  call void @llvm.lifetime.end.p0(i64 4, ptr %8) #10
  call void @llvm.lifetime.end.p0(i64 8, ptr %7) #10
  call void @llvm.lifetime.end.p0(i64 8, ptr %6) #10
  %30 = load i32, ptr %3, align 4
  ret i32 %30
}