; Function Attrs: nounwind uwtable
define internal i32 @_sort_assoc_by_lineage_asc(ptr noundef readonly captures(none) %0, ptr noundef readonly captures(none) %1) #0 {
  %3 = load ptr, ptr %0, align 8
  %4 = load ptr, ptr %1, align 8
  %5 = getelementptr inbounds nuw i8, ptr %3, i64 40
  %6 = getelementptr inbounds nuw i8, ptr %4, i64 40
  %7 = tail call i32 @slurm_sort_char_list_asc(ptr noundef nonnull %5, ptr noundef nonnull %6) #19
  %.not = icmp eq i32 %7, 0
  br i1 %.not, label %8, label %12

8:                                                ; preds = %2
  %9 = getelementptr inbounds nuw i8, ptr %3, i64 152
  %10 = getelementptr inbounds nuw i8, ptr %4, i64 152
  %11 = tail call i32 @slurm_sort_char_list_asc(ptr noundef nonnull %9, ptr noundef nonnull %10) #19
  br label %12

12:                                               ; preds = %2, %8
  %.0 = phi i32 [ %11, %8 ], [ %7, %2 ]
  ret i32 %.0
}